target datalayout = "e-m:e-p270:32:32-p271:32:32-p272:64:64-i64:64-i128:128-f80:128-n8:16:32:64-S128"
target triple = "x86_64-pc-linux-gnu"

%struct.ident_t = type { i32, i32, i32, i32, ptr }
%"class.open3d::t::geometry::kernel::TArrayIndexer" = type { ptr, i64, i64, [4 x i64] }
%"class.open3d::t::geometry::kernel::TransformIndexer" = type { [3 x [4 x float]], float, float, float, float, float }
%class.anon.385 = type <{ float, [4 x i8], i64, %"class.open3d::t::geometry::kernel::TArrayIndexer", %"class.open3d::t::geometry::kernel::TArrayIndexer", %"class.open3d::t::geometry::kernel::TransformIndexer", [4 x i8] }>
%class.anon.395 = type { float }

@1 = private unnamed_addr constant %struct.ident_t { i32 0, i32 514, i32 0, i32 22, ptr @0 }, align 8

; Function Attrs: mustprogress nounwind ssp uwtable
define linkonce_odr noundef zeroext i1 @_ZSt5isnanf(float noundef %0) #5 comdat {
  %2 = alloca float, align 4
  store float %0, ptr %2, align 4, !tbaa !15
  %3 = load float, ptr %2, align 4, !tbaa !15
  %4 = call i1 @llvm.is.fpclass.f32(float %3, i32 3)
  ret i1 %4
}

; Function Attrs: mustprogress nounwind ssp uwtable
define linkonce_odr noundef zeroext i1 @_ZSt5isinff(float noundef %0) #5 comdat {
  %2 = alloca float, align 4
  store float %0, ptr %2, align 4, !tbaa !15
  %3 = load float, ptr %2, align 4, !tbaa !15
  %4 = call i1 @llvm.is.fpclass.f32(float %3, i32 516)
  ret i1 %4
}

; Function Attrs: inlinehint mustprogress nounwind ssp uwtable
define linkonce_odr hidden void @_ZNK6open3d1t8geometry6kernel13TArrayIndexerIlE15CoordToWorkloadEllPl(ptr noundef nonnull align 8 dereferenceable(56) %0, i64 noundef %1, i64 noundef %2, ptr noundef %3) #2 comdat align 2 {
  %5 = alloca ptr, align 8
  %6 = alloca i64, align 8
  %7 = alloca i64, align 8
  %8 = alloca ptr, align 8
  store ptr %0, ptr %5, align 8, !tbaa !1774
  store i64 %1, ptr %6, align 8, !tbaa !49
  store i64 %2, ptr %7, align 8, !tbaa !49
  store ptr %3, ptr %8, align 8, !tbaa !29
  %9 = load ptr, ptr %5, align 8
  %10 = load i64, ptr %7, align 8, !tbaa !49
  %11 = getelementptr inbounds nuw %"class.open3d::t::geometry::kernel::TArrayIndexer", ptr %9, i32 0, i32 3
  %12 = getelementptr inbounds [4 x i64], ptr %11, i64 0, i64 1
  %13 = load i64, ptr %12, align 8, !tbaa !49
  %14 = mul nsw i64 %10, %13
  %15 = load i64, ptr %6, align 8, !tbaa !49
  %16 = add nsw i64 %14, %15
  %17 = load ptr, ptr %8, align 8, !tbaa !29
  store i64 %16, ptr %17, align 8, !tbaa !49
  ret void
}

; Function Attrs: mustprogress nounwind ssp uwtable
define linkonce_odr hidden void @_ZNK6open3d1t8geometry6kernel16TransformIndexer9UnprojectEfffPfS4_S4_(ptr noundef nonnull align 4 dereferenceable(68) %0, float noundef %1, float noundef %2, float noundef %3, ptr noundef %4, ptr noundef %5, ptr noundef %6) #5 comdat align 2 {
  %8 = alloca ptr, align 8
  %9 = alloca float, align 4
  %10 = alloca float, align 4
  %11 = alloca float, align 4
  %12 = alloca ptr, align 8
  %13 = alloca ptr, align 8
  %14 = alloca ptr, align 8
  store ptr %0, ptr %8, align 8, !tbaa !1985
  store float %1, ptr %9, align 4, !tbaa !15
  store float %2, ptr %10, align 4, !tbaa !15
  store float %3, ptr %11, align 4, !tbaa !15
  store ptr %4, ptr %12, align 8, !tbaa !19
  store ptr %5, ptr %13, align 8, !tbaa !19
  store ptr %6, ptr %14, align 8, !tbaa !19
  %15 = load ptr, ptr %8, align 8
  %16 = load float, ptr %9, align 4, !tbaa !15
  %17 = getelementptr inbounds nuw %"class.open3d::t::geometry::kernel::TransformIndexer", ptr %15, i32 0, i32 3
  %18 = load float, ptr %17, align 4, !tbaa !1995
  %19 = fsub float %16, %18
  %20 = load float, ptr %11, align 4, !tbaa !15
  %21 = fmul float %19, %20
  %22 = getelementptr inbounds nuw %"class.open3d::t::geometry::kernel::TransformIndexer", ptr %15, i32 0, i32 1
  %23 = load float, ptr %22, align 4, !tbaa !1993
  %24 = fdiv float %21, %23
  %25 = load ptr, ptr %12, align 8, !tbaa !19
  store float %24, ptr %25, align 4, !tbaa !15
  %26 = load float, ptr %10, align 4, !tbaa !15
  %27 = getelementptr inbounds nuw %"class.open3d::t::geometry::kernel::TransformIndexer", ptr %15, i32 0, i32 4
  %28 = load float, ptr %27, align 4, !tbaa !1996
  %29 = fsub float %26, %28
  %30 = load float, ptr %11, align 4, !tbaa !15
  %31 = fmul float %29, %30
  %32 = getelementptr inbounds nuw %"class.open3d::t::geometry::kernel::TransformIndexer", ptr %15, i32 0, i32 2
  %33 = load float, ptr %32, align 4, !tbaa !1994
  %34 = fdiv float %31, %33
  %35 = load ptr, ptr %13, align 8, !tbaa !19
  store float %34, ptr %35, align 4, !tbaa !15
  %36 = load float, ptr %11, align 4, !tbaa !15
  %37 = load ptr, ptr %14, align 8, !tbaa !19
  store float %36, ptr %37, align 4, !tbaa !15
  ret void
}

; Function Attrs: inlinehint mustprogress ssp uwtable
define internal noundef zeroext i1 @"_ZZZN6open3d1t8geometry6kernel5image18CreateVertexMapCPUERKNS_4core6TensorERS5_S7_fENK3$_0clElENKUlfE_clEf"(ptr noundef nonnull align 4 dereferenceable(4) %0, float noundef %1) #7 align 2 {
  %3 = alloca i1, align 1
  %4 = alloca ptr, align 8
  %5 = alloca float, align 4
  store ptr %0, ptr %4, align 8, !tbaa !51
  store float %1, ptr %5, align 4, !tbaa !15
  %6 = load ptr, ptr %4, align 8
  %7 = getelementptr inbounds nuw %class.anon.395, ptr %6, i32 0, i32 0
  %8 = load float, ptr %7, align 4, !tbaa !2017
  %9 = call noundef zeroext i1 @_ZSt5isinff(float noundef %8)
  br i1 %9, label %10, label %13

10:                                               ; preds = %2
  %11 = load float, ptr %5, align 4, !tbaa !15
  %12 = call noundef zeroext i1 @_ZSt5isinff(float noundef %11)
  store i1 %12, ptr %3, align 1
  br label %25

13:                                               ; preds = %2
  %14 = getelementptr inbounds nuw %class.anon.395, ptr %6, i32 0, i32 0
  %15 = load float, ptr %14, align 4, !tbaa !2017
  %16 = call noundef zeroext i1 @_ZSt5isnanf(float noundef %15)
  br i1 %16, label %17, label %20

17:                                               ; preds = %13
  %18 = load float, ptr %5, align 4, !tbaa !15
  %19 = call noundef zeroext i1 @_ZSt5isnanf(float noundef %18)
  store i1 %19, ptr %3, align 1
  br label %25

20:                                               ; preds = %13
  %21 = load float, ptr %5, align 4, !tbaa !15
  %22 = getelementptr inbounds nuw %class.anon.395, ptr %6, i32 0, i32 0
  %23 = load float, ptr %22, align 4, !tbaa !2017
  %24 = fcmp oeq float %21, %23
  store i1 %24, ptr %3, align 1
  br label %25

25:                                               ; preds = %20, %17, %10
  %26 = load i1, ptr %3, align 1
  ret i1 %26
}

; Function Attrs: inlinehint mustprogress ssp uwtable
define linkonce_odr hidden noundef ptr @_ZNK6open3d1t8geometry6kernel13TArrayIndexerIlE10GetDataPtrIfEEPT_ll(ptr noundef nonnull align 8 dereferenceable(56) %0, i64 noundef %1, i64 noundef %2) #7 comdat align 2 {
  %4 = alloca ptr, align 8
  %5 = alloca i64, align 8
  %6 = alloca i64, align 8
  %7 = alloca i64, align 8
  store ptr %0, ptr %4, align 8, !tbaa !1774
  store i64 %1, ptr %5, align 8, !tbaa !49
  store i64 %2, ptr %6, align 8, !tbaa !49
  %8 = load ptr, ptr %4, align 8
  call void @llvm.lifetime.start.p0(i64 8, ptr %7) #19
  %9 = load i64, ptr %5, align 8, !tbaa !49
  %10 = load i64, ptr %6, align 8, !tbaa !49
  call void @_ZNK6open3d1t8geometry6kernel13TArrayIndexerIlE15CoordToWorkloadEllPl(ptr noundef nonnull align 8 dereferenceable(56) %8, i64 noundef %9, i64 noundef %10, ptr noundef %7)
  %11 = getelementptr inbounds nuw %"class.open3d::t::geometry::kernel::TArrayIndexer", ptr %8, i32 0, i32 0
  %12 = load ptr, ptr %11, align 8, !tbaa !1782
  %13 = load i64, ptr %7, align 8, !tbaa !49
  %14 = getelementptr inbounds nuw %"class.open3d::t::geometry::kernel::TArrayIndexer", ptr %8, i32 0, i32 1
  %15 = load i64, ptr %14, align 8, !tbaa !1779
  %16 = mul nsw i64 %13, %15
  %17 = getelementptr inbounds i8, ptr %12, i64 %16
  call void @llvm.lifetime.end.p0(i64 8, ptr %7) #19
  ret ptr %17
}

; Function Attrs: noinline noreturn nounwind ssp uwtable
define linkonce_odr hidden void @__clang_call_terminate(ptr noundef %0) #9 comdat {
  %2 = call ptr @__cxa_begin_catch(ptr %0) #19
  call void @_ZSt9terminatev() #29
  unreachable
}

; Function Attrs: inlinehint mustprogress ssp uwtable
define internal void @"_ZZN6open3d1t8geometry6kernel5image18CreateVertexMapCPUERKNS_4core6TensorERS5_S7_fENK3$_0clEl"(ptr noundef nonnull align 8 dereferenceable(196) %0, i64 noundef %1) #7 align 2 {
  %3 = alloca ptr, align 8
  %4 = alloca i64, align 8
  %5 = alloca %class.anon.395, align 4
  %6 = alloca i64, align 8
  %7 = alloca i64, align 8
  %8 = alloca float, align 4
  %9 = alloca ptr, align 8
  store ptr %0, ptr %3, align 8, !tbaa !51
  store i64 %1, ptr %4, align 8, !tbaa !49
  %10 = load ptr, ptr %3, align 8
  call void @llvm.lifetime.start.p0(i64 4, ptr %5) #19
  %11 = getelementptr inbounds nuw %class.anon.395, ptr %5, i32 0, i32 0
  %12 = getelementptr inbounds nuw %class.anon.385, ptr %10, i32 0, i32 0
  %13 = load float, ptr %12, align 8, !tbaa !1980
  store float %13, ptr %11, align 4, !tbaa !2017
  call void @llvm.lifetime.start.p0(i64 8, ptr %6) #19
  %14 = load i64, ptr %4, align 8, !tbaa !49
  %15 = getelementptr inbounds nuw %class.anon.385, ptr %10, i32 0, i32 2
  %16 = load i64, ptr %15, align 8, !tbaa !1983
  %17 = sdiv i64 %14, %16
  store i64 %17, ptr %6, align 8, !tbaa !49
  call void @llvm.lifetime.start.p0(i64 8, ptr %7) #19
  %18 = load i64, ptr %4, align 8, !tbaa !49
  %19 = getelementptr inbounds nuw %class.anon.385, ptr %10, i32 0, i32 2
  %20 = load i64, ptr %19, align 8, !tbaa !1983
  %21 = srem i64 %18, %20
  store i64 %21, ptr %7, align 8, !tbaa !49
  call void @llvm.lifetime.start.p0(i64 4, ptr %8) #19
  %22 = getelementptr inbounds nuw %class.anon.385, ptr %10, i32 0, i32 3
  %23 = load i64, ptr %7, align 8, !tbaa !49
  %24 = load i64, ptr %6, align 8, !tbaa !49
  %25 = call noundef ptr @_ZNK6open3d1t8geometry6kernel13TArrayIndexerIlE10GetDataPtrIfEEPT_ll(ptr noundef nonnull align 8 dereferenceable(56) %22, i64 noundef %23, i64 noundef %24)
  %26 = load float, ptr %25, align 4, !tbaa !15
  store float %26, ptr %8, align 4, !tbaa !15
  call void @llvm.lifetime.start.p0(i64 8, ptr %9) #19
  %27 = getelementptr inbounds nuw %class.anon.385, ptr %10, i32 0, i32 4
  %28 = load i64, ptr %7, align 8, !tbaa !49
  %29 = load i64, ptr %6, align 8, !tbaa !49
  %30 = call noundef ptr @_ZNK6open3d1t8geometry6kernel13TArrayIndexerIlE10GetDataPtrIfEEPT_ll(ptr noundef nonnull align 8 dereferenceable(56) %27, i64 noundef %28, i64 noundef %29)
  store ptr %30, ptr %9, align 8, !tbaa !19
  %31 = load float, ptr %8, align 4, !tbaa !15
  %32 = call noundef zeroext i1 @"_ZZZN6open3d1t8geometry6kernel5image18CreateVertexMapCPUERKNS_4core6TensorERS5_S7_fENK3$_0clElENKUlfE_clEf"(ptr noundef nonnull align 4 dereferenceable(4) %5, float noundef %31)
  br i1 %32, label %46, label %33

33:                                               ; preds = %2
  %34 = getelementptr inbounds nuw %class.anon.385, ptr %10, i32 0, i32 5
  %35 = load i64, ptr %7, align 8, !tbaa !49
  %36 = sitofp i64 %35 to float
  %37 = load i64, ptr %6, align 8, !tbaa !49
  %38 = sitofp i64 %37 to float
  %39 = load float, ptr %8, align 4, !tbaa !15
  %40 = load ptr, ptr %9, align 8, !tbaa !19
  %41 = getelementptr inbounds float, ptr %40, i64 0
  %42 = load ptr, ptr %9, align 8, !tbaa !19
  %43 = getelementptr inbounds float, ptr %42, i64 1
  %44 = load ptr, ptr %9, align 8, !tbaa !19
  %45 = getelementptr inbounds float, ptr %44, i64 2
  call void @_ZNK6open3d1t8geometry6kernel16TransformIndexer9UnprojectEfffPfS4_S4_(ptr noundef nonnull align 4 dereferenceable(68) %34, float noundef %36, float noundef %38, float noundef %39, ptr noundef %41, ptr noundef %43, ptr noundef %45)
  br label %59

46:                                               ; preds = %2
  %47 = getelementptr inbounds nuw %class.anon.385, ptr %10, i32 0, i32 0
  %48 = load float, ptr %47, align 8, !tbaa !1980
  %49 = load ptr, ptr %9, align 8, !tbaa !19
  %50 = getelementptr inbounds float, ptr %49, i64 0
  store float %48, ptr %50, align 4, !tbaa !15
  %51 = getelementptr inbounds nuw %class.anon.385, ptr %10, i32 0, i32 0
  %52 = load float, ptr %51, align 8, !tbaa !1980
  %53 = load ptr, ptr %9, align 8, !tbaa !19
  %54 = getelementptr inbounds float, ptr %53, i64 1
  store float %52, ptr %54, align 4, !tbaa !15
  %55 = getelementptr inbounds nuw %class.anon.385, ptr %10, i32 0, i32 0
  %56 = load float, ptr %55, align 8, !tbaa !1980
  %57 = load ptr, ptr %9, align 8, !tbaa !19
  %58 = getelementptr inbounds float, ptr %57, i64 2
  store float %56, ptr %58, align 4, !tbaa !15
  br label %59

59:                                               ; preds = %46, %33
  call void @llvm.lifetime.end.p0(i64 8, ptr %9) #19
  call void @llvm.lifetime.end.p0(i64 4, ptr %8) #19
  call void @llvm.lifetime.end.p0(i64 8, ptr %7) #19
  call void @llvm.lifetime.end.p0(i64 8, ptr %6) #19
  call void @llvm.lifetime.end.p0(i64 4, ptr %5) #19
  ret void
}

; Function Attrs: alwaysinline norecurse nounwind ssp uwtable
define internal void @"_ZN6open3d4core15ParallelForCPU_IZNS_1t8geometry6kernel5image18CreateVertexMapCPUERKNS0_6TensorERS6_S8_fE3$_0EEvRKNS0_6DeviceElRKT_.omp_outlined"(ptr noalias noundef %0, ptr noalias noundef %1, ptr noundef nonnull align 8 dereferenceable(8) %2, ptr noundef nonnull align 8 dereferenceable(196) %3) #18 personality ptr @__gxx_personality_v0 {
  %5 = alloca ptr, align 8
  %6 = alloca ptr, align 8
  %7 = alloca ptr, align 8
  %8 = alloca ptr, align 8
  %9 = alloca ptr, align 8
  %10 = alloca i64, align 8
  %11 = alloca i64, align 8
  %12 = alloca i64, align 8
  %13 = alloca i64, align 8
  %14 = alloca i64, align 8
  %15 = alloca i64, align 8
  %16 = alloca i64, align 8
  %17 = alloca i32, align 4
  %18 = alloca i64, align 8
  store ptr %0, ptr %5, align 8, !tbaa !27
  store ptr %1, ptr %6, align 8, !tbaa !27
  store ptr %2, ptr %7, align 8, !tbaa !29
  store ptr %3, ptr %8, align 8, !tbaa !51
  %19 = load ptr, ptr %7, align 8, !tbaa !29
  %20 = load ptr, ptr %8, align 8, !tbaa !51
  store ptr %20, ptr %9, align 8
  call void @llvm.lifetime.start.p0(i64 8, ptr %10) #19
  call void @llvm.lifetime.start.p0(i64 8, ptr %11) #19
  %21 = load i64, ptr %19, align 8, !tbaa !49
  store i64 %21, ptr %11, align 8, !tbaa !49
  call void @llvm.lifetime.start.p0(i64 8, ptr %12) #19
  %22 = load i64, ptr %11, align 8, !tbaa !49
  %23 = sub nsw i64 %22, 0
  %24 = sdiv i64 %23, 1
  %25 = sub nsw i64 %24, 1
  store i64 %25, ptr %12, align 8, !tbaa !49
  call void @llvm.lifetime.start.p0(i64 8, ptr %13) #19
  store i64 0, ptr %13, align 8, !tbaa !49
  call void @llvm.lifetime.end.p0(i64 8, ptr %13) #19
  %26 = load i64, ptr %11, align 8, !tbaa !49
  %27 = icmp slt i64 0, %26
  br i1 %27, label %28, label %62

28:                                               ; preds = %4
  call void @llvm.lifetime.start.p0(i64 8, ptr %14) #19
  store i64 0, ptr %14, align 8, !tbaa !49
  call void @llvm.lifetime.start.p0(i64 8, ptr %15) #19
  %29 = load i64, ptr %12, align 8, !tbaa !49
  store i64 %29, ptr %15, align 8, !tbaa !49
  call void @llvm.lifetime.start.p0(i64 8, ptr %16) #19
  store i64 1, ptr %16, align 8, !tbaa !49
  call void @llvm.lifetime.start.p0(i64 4, ptr %17) #19
  store i32 0, ptr %17, align 4, !tbaa !127
  call void @llvm.lifetime.start.p0(i64 8, ptr %18) #19
  %30 = load ptr, ptr %5, align 8
  %31 = load i32, ptr %30, align 4, !tbaa !127
  call void @__kmpc_for_static_init_8(ptr @1, i32 %31, i32 34, ptr %17, ptr %14, ptr %15, ptr %16, i64 1, i64 1)
  %32 = load i64, ptr %15, align 8, !tbaa !49
  %33 = load i64, ptr %12, align 8, !tbaa !49
  %34 = icmp sgt i64 %32, %33
  br i1 %34, label %35, label %37

35:                                               ; preds = %28
  %36 = load i64, ptr %12, align 8, !tbaa !49
  br label %39

37:                                               ; preds = %28
  %38 = load i64, ptr %15, align 8, !tbaa !49
  br label %39

39:                                               ; preds = %37, %35
  %40 = phi i64 [ %36, %35 ], [ %38, %37 ]
  store i64 %40, ptr %15, align 8, !tbaa !49
  %41 = load i64, ptr %14, align 8, !tbaa !49
  store i64 %41, ptr %10, align 8, !tbaa !49
  br label %42

42:                                               ; preds = %55, %39
  %43 = load i64, ptr %10, align 8, !tbaa !49
  %44 = load i64, ptr %15, align 8, !tbaa !49
  %45 = icmp sle i64 %43, %44
  br i1 %45, label %47, label %46

46:                                               ; preds = %42
  br label %58

47:                                               ; preds = %42
  %48 = load i64, ptr %10, align 8, !tbaa !49
  %49 = mul nsw i64 %48, 1
  %50 = add nsw i64 0, %49
  store i64 %50, ptr %18, align 8, !tbaa !49
  %51 = load ptr, ptr %9, align 8, !tbaa !51
  %52 = load i64, ptr %18, align 8, !tbaa !49
  invoke void @"_ZZN6open3d1t8geometry6kernel5image18CreateVertexMapCPUERKNS_4core6TensorERS5_S7_fENK3$_0clEl"(ptr noundef nonnull align 8 dereferenceable(196) %51, i64 noundef %52)
          to label %53 unwind label %63

53:                                               ; preds = %47
  br label %54

54:                                               ; preds = %53
  br label %55

55:                                               ; preds = %54
  %56 = load i64, ptr %10, align 8, !tbaa !49
  %57 = add nsw i64 %56, 1
  store i64 %57, ptr %10, align 8, !tbaa !49
  br label %42

58:                                               ; preds = %46
  br label %59

59:                                               ; preds = %58
  %60 = load ptr, ptr %5, align 8
  %61 = load i32, ptr %60, align 4, !tbaa !127
  call void @__kmpc_for_static_fini(ptr @1, i32 %61)
  call void @llvm.lifetime.end.p0(i64 8, ptr %18) #19
  call void @llvm.lifetime.end.p0(i64 4, ptr %17) #19
  call void @llvm.lifetime.end.p0(i64 8, ptr %16) #19
  call void @llvm.lifetime.end.p0(i64 8, ptr %15) #19
  call void @llvm.lifetime.end.p0(i64 8, ptr %14) #19
  br label %62

62:                                               ; preds = %59, %4
  call void @llvm.lifetime.end.p0(i64 8, ptr %12) #19
  call void @llvm.lifetime.end.p0(i64 8, ptr %11) #19
  call void @llvm.lifetime.end.p0(i64 8, ptr %10) #19
  ret void

63:                                               ; preds = %47
  %64 = landingpad { ptr, i32 }
          catch ptr null
  %65 = extractvalue { ptr, i32 } %64, 0
  call void @__clang_call_terminate(ptr %65) #29
  unreachable
}