; Function Attrs: alwaysinline norecurse nounwind ssp uwtable
define internal void @"_ZN6open3d4core15ParallelForCPU_IZNS_1t8geometry6kernel5image18CreateVertexMapCPUERKNS0_6TensorERS6_S8_fE3$_0EEvRKNS0_6DeviceElRKT_.omp_outlined"(ptr noalias noundef readonly captures(none) %0, ptr noalias readnone captures(none) %1, ptr noundef nonnull readonly align 8 captures(none) dereferenceable(8) %2, ptr noundef nonnull readonly align 8 captures(none) dereferenceable(196) %3) #15 personality ptr @__gxx_personality_v0 {
  %5 = alloca i64, align 8
  %6 = alloca i64, align 8
  %7 = alloca i64, align 8
  %8 = alloca i32, align 4
  %9 = load i64, ptr %2, align 8, !tbaa !36
  %10 = icmp sgt i64 %9, 0
  br i1 %10, label %11, label %78

11:                                               ; preds = %4
  %12 = add nsw i64 %9, -1
  call void @llvm.lifetime.start.p0(i64 8, ptr nonnull %5) #16
  store i64 0, ptr %5, align 8, !tbaa !36
  call void @llvm.lifetime.start.p0(i64 8, ptr nonnull %6) #16
  store i64 %12, ptr %6, align 8, !tbaa !36
  call void @llvm.lifetime.start.p0(i64 8, ptr nonnull %7) #16
  store i64 1, ptr %7, align 8, !tbaa !36
  call void @llvm.lifetime.start.p0(i64 4, ptr nonnull %8) #16
  store i32 0, ptr %8, align 4, !tbaa !16
  %13 = load i32, ptr %0, align 4, !tbaa !16
  call void @__kmpc_for_static_init_8(ptr nonnull @1, i32 %13, i32 34, ptr nonnull %8, ptr nonnull %5, ptr nonnull %6, ptr nonnull %7, i64 1, i64 1)
  %14 = load i64, ptr %6, align 8, !tbaa !36
  %15 = call i64 @llvm.smin.i64(i64 %14, i64 %12)
  store i64 %15, ptr %6, align 8, !tbaa !36
  %16 = load i64, ptr %5, align 8, !tbaa !36
  %.not13 = icmp sgt i64 %16, %15
  br i1 %.not13, label %._crit_edge, label %.lr.ph

.lr.ph:                                           ; preds = %11
  %17 = getelementptr inbounds nuw i8, ptr %3, i64 8
  %18 = load i64, ptr %17, align 8, !tbaa !1432
  %19 = getelementptr inbounds nuw i8, ptr %3, i64 16
  %20 = getelementptr inbounds nuw i8, ptr %3, i64 48
  %21 = load i64, ptr %20, align 8, !tbaa !36
  %22 = load ptr, ptr %19, align 8, !tbaa !1334
  %23 = getelementptr inbounds nuw i8, ptr %3, i64 24
  %24 = load i64, ptr %23, align 8, !tbaa !1320
  %25 = getelementptr inbounds nuw i8, ptr %3, i64 72
  %26 = getelementptr inbounds nuw i8, ptr %3, i64 104
  %27 = load i64, ptr %26, align 8, !tbaa !36
  %28 = load ptr, ptr %25, align 8, !tbaa !1334
  %29 = getelementptr inbounds nuw i8, ptr %3, i64 80
  %30 = load i64, ptr %29, align 8, !tbaa !1320
  %31 = getelementptr inbounds nuw i8, ptr %3, i64 184
  %32 = getelementptr inbounds nuw i8, ptr %3, i64 176
  %33 = getelementptr inbounds nuw i8, ptr %3, i64 188
  %34 = getelementptr inbounds nuw i8, ptr %3, i64 180
  br label %35

35:                                               ; preds = %.lr.ph, %"_ZZN6open3d1t8geometry6kernel5image18CreateVertexMapCPUERKNS_4core6TensorERS5_S7_fENK3$_0clEl.exit"
  %.014 = phi i64 [ %16, %.lr.ph ], [ %77, %"_ZZN6open3d1t8geometry6kernel5image18CreateVertexMapCPUERKNS_4core6TensorERS5_S7_fENK3$_0clEl.exit" ]
  %36 = load float, ptr %3, align 8, !tbaa !1429
  %37 = sdiv i64 %.014, %18
  %38 = srem i64 %.014, %18
  %39 = mul nsw i64 %21, %37
  %40 = add nsw i64 %39, %38
  %41 = mul nsw i64 %40, %24
  %42 = getelementptr inbounds i8, ptr %22, i64 %41
  %43 = load float, ptr %42, align 4, !tbaa !38
  %44 = mul nsw i64 %27, %37
  %45 = add nsw i64 %44, %38
  %46 = mul nsw i64 %45, %30
  %47 = getelementptr inbounds i8, ptr %28, i64 %46
  %48 = call float @llvm.fabs.f32(float %36)
  %49 = fcmp oeq float %48, 0x7FF0000000000000
  br i1 %49, label %50, label %53

50:                                               ; preds = %35
  %51 = call float @llvm.fabs.f32(float %43)
  %52 = fcmp oeq float %51, 0x7FF0000000000000
  br i1 %52, label %73, label %58

53:                                               ; preds = %35
  %54 = fcmp uno float %36, 0.000000e+00
  br i1 %54, label %55, label %"_ZZZN6open3d1t8geometry6kernel5image18CreateVertexMapCPUERKNS_4core6TensorERS5_S7_fENK3$_0clElENKUlfE_clEf.exit.i"

55:                                               ; preds = %53
  %56 = fcmp uno float %43, 0.000000e+00
  br i1 %56, label %73, label %58

"_ZZZN6open3d1t8geometry6kernel5image18CreateVertexMapCPUERKNS_4core6TensorERS5_S7_fENK3$_0clElENKUlfE_clEf.exit.i": ; preds = %53
  %57 = fcmp oeq float %43, %36
  br i1 %57, label %73, label %58

58:                                               ; preds = %"_ZZZN6open3d1t8geometry6kernel5image18CreateVertexMapCPUERKNS_4core6TensorERS5_S7_fENK3$_0clElENKUlfE_clEf.exit.i", %55, %50
  %59 = sitofp i64 %38 to float
  %60 = sitofp i64 %37 to float
  %61 = getelementptr inbounds nuw i8, ptr %47, i64 4
  %62 = getelementptr inbounds nuw i8, ptr %47, i64 8
  %63 = load float, ptr %31, align 8, !tbaa !1442
  %64 = fsub float %59, %63
  %65 = fmul float %43, %64
  %66 = load float, ptr %32, align 8, !tbaa !1440
  %67 = fdiv float %65, %66
  store float %67, ptr %47, align 4, !tbaa !38
  %68 = load float, ptr %33, align 4, !tbaa !1443
  %69 = fsub float %60, %68
  %70 = fmul float %43, %69
  %71 = load float, ptr %34, align 4, !tbaa !1441
  %72 = fdiv float %70, %71
  store float %72, ptr %61, align 4, !tbaa !38
  store float %43, ptr %62, align 4, !tbaa !38
  br label %"_ZZN6open3d1t8geometry6kernel5image18CreateVertexMapCPUERKNS_4core6TensorERS5_S7_fENK3$_0clEl.exit"

73:                                               ; preds = %"_ZZZN6open3d1t8geometry6kernel5image18CreateVertexMapCPUERKNS_4core6TensorERS5_S7_fENK3$_0clElENKUlfE_clEf.exit.i", %55, %50
  store float %36, ptr %47, align 4, !tbaa !38
  %74 = load float, ptr %3, align 8, !tbaa !1429
  %75 = getelementptr inbounds nuw i8, ptr %47, i64 4
  store float %74, ptr %75, align 4, !tbaa !38
  %76 = getelementptr inbounds nuw i8, ptr %47, i64 8
  store float %74, ptr %76, align 4, !tbaa !38
  br label %"_ZZN6open3d1t8geometry6kernel5image18CreateVertexMapCPUERKNS_4core6TensorERS5_S7_fENK3$_0clEl.exit"

"_ZZN6open3d1t8geometry6kernel5image18CreateVertexMapCPUERKNS_4core6TensorERS5_S7_fENK3$_0clEl.exit": ; preds = %73, %58
  %77 = add i64 %.014, 1
  %exitcond.not = icmp eq i64 %.014, %15
  br i1 %exitcond.not, label %._crit_edge, label %35

._crit_edge:                                      ; preds = %"_ZZN6open3d1t8geometry6kernel5image18CreateVertexMapCPUERKNS_4core6TensorERS5_S7_fENK3$_0clEl.exit", %11
  call void @__kmpc_for_static_fini(ptr nonnull @1, i32 %13)
  call void @llvm.lifetime.end.p0(i64 4, ptr nonnull %8) #16
  call void @llvm.lifetime.end.p0(i64 8, ptr nonnull %7) #16
  call void @llvm.lifetime.end.p0(i64 8, ptr nonnull %6) #16
  call void @llvm.lifetime.end.p0(i64 8, ptr nonnull %5) #16
  br label %78

78:                                               ; preds = %._crit_edge, %4
  ret void
}